target datalayout = "e-m:e-p270:32:32-p271:32:32-p272:64:64-i64:64-i128:128-f80:128-n8:16:32:64-S128"
target triple = "x86_64-pc-linux-gnu"

; Function Attrs: inlinehint mustprogress uwtable
define internal noundef ptr @_ZZN5folly9SingletonINS_17ShutdownSocketSetENS_12_GLOBAL__N_110PrivateTagENS_6detail10DefaultTagEEC1EDnSt8functionIFvPS1_EEENKUlvE_clEv(ptr noundef nonnull align 1 dereferenceable(1) %0) #6 align 2 personality ptr @__gxx_personality_v0 {
  %2 = alloca ptr, align 8
  %3 = alloca ptr, align 8
  %4 = alloca i32, align 4
  store ptr %0, ptr %2, align 8, !tbaa !25
  %5 = call noalias noundef nonnull ptr @_Znwm(i64 noundef 24) #32
  invoke void @_ZN5folly17ShutdownSocketSetC1Em(ptr noundef nonnull align 8 dereferenceable(24) %5, i64 noundef 262144)
          to label %6 unwind label %7

6:                                                ; preds = %1
  ret ptr %5

7:                                                ; preds = %1
  %8 = landingpad { ptr, i32 }
          cleanup
  %9 = extractvalue { ptr, i32 } %8, 0
  store ptr %9, ptr %3, align 8
  %10 = extractvalue { ptr, i32 } %8, 1
  store i32 %10, ptr %4, align 4
  call void @_ZdlPvm(ptr noundef %5, i64 noundef 24) #33
  br label %11

11:                                               ; preds = %7
  %12 = load ptr, ptr %3, align 8
  %13 = load i32, ptr %4, align 4
  %14 = insertvalue { ptr, i32 } poison, ptr %12, 0
  %15 = insertvalue { ptr, i32 } %14, i32 %13, 1
  resume { ptr, i32 } %15
}

; Function Attrs: mustprogress nounwind uwtable
define linkonce_odr noundef ptr @_ZNKSt9_Any_data9_M_accessEv(ptr noundef nonnull align 8 dereferenceable(16) %0) #1 comdat align 2 {
  %2 = alloca ptr, align 8
  store ptr %0, ptr %2, align 8, !tbaa !31
  %3 = load ptr, ptr %2, align 8
  %4 = getelementptr inbounds [16 x i8], ptr %3, i64 0, i64 0
  ret ptr %4
}

; Function Attrs: mustprogress uwtable
define internal noundef ptr @_ZSt13__invoke_implIPN5folly17ShutdownSocketSetERZNS0_9SingletonIS1_NS0_12_GLOBAL__N_110PrivateTagENS0_6detail10DefaultTagEEC1EDnSt8functionIFvS2_EEEUlvE_JEET_St14__invoke_otherOT0_DpOT1_(ptr noundef nonnull align 1 dereferenceable(1) %0) #2 {
  %2 = alloca ptr, align 8
  store ptr %0, ptr %2, align 8, !tbaa !25
  %3 = load ptr, ptr %2, align 8, !tbaa !25
  %4 = call noundef ptr @_ZZN5folly9SingletonINS_17ShutdownSocketSetENS_12_GLOBAL__N_110PrivateTagENS_6detail10DefaultTagEEC1EDnSt8functionIFvPS1_EEENKUlvE_clEv(ptr noundef nonnull align 1 dereferenceable(1) %3)
  ret ptr %4
}

; Function Attrs: mustprogress nounwind uwtable
define internal noundef nonnull align 1 dereferenceable(1) ptr @_ZNKSt9_Any_data9_M_accessIZN5folly9SingletonINS1_17ShutdownSocketSetENS1_12_GLOBAL__N_110PrivateTagENS1_6detail10DefaultTagEEC1EDnSt8functionIFvPS3_EEEUlvE_EERKT_v(ptr noundef nonnull align 8 dereferenceable(16) %0) #1 align 2 {
  %2 = alloca ptr, align 8
  store ptr %0, ptr %2, align 8, !tbaa !31
  %3 = load ptr, ptr %2, align 8
  %4 = call noundef ptr @_ZNKSt9_Any_data9_M_accessEv(ptr noundef nonnull align 8 dereferenceable(16) %3) #25
  ret ptr %4
}

; Function Attrs: mustprogress uwtable
define internal noundef ptr @_ZSt10__invoke_rIPN5folly17ShutdownSocketSetERZNS0_9SingletonIS1_NS0_12_GLOBAL__N_110PrivateTagENS0_6detail10DefaultTagEEC1EDnSt8functionIFvS2_EEEUlvE_JEENSt9enable_ifIX16is_invocable_r_vIT_T0_DpT1_EESF_E4typeEOSG_DpOSH_(ptr noundef nonnull align 1 dereferenceable(1) %0) #2 {
  %2 = alloca ptr, align 8
  store ptr %0, ptr %2, align 8, !tbaa !25
  %3 = load ptr, ptr %2, align 8, !tbaa !25
  %4 = call noundef ptr @_ZSt13__invoke_implIPN5folly17ShutdownSocketSetERZNS0_9SingletonIS1_NS0_12_GLOBAL__N_110PrivateTagENS0_6detail10DefaultTagEEC1EDnSt8functionIFvS2_EEEUlvE_JEET_St14__invoke_otherOT0_DpOT1_(ptr noundef nonnull align 1 dereferenceable(1) %3)
  ret ptr %4
}

; Function Attrs: mustprogress nounwind uwtable
define internal noundef ptr @_ZNSt14_Function_base13_Base_managerIZN5folly9SingletonINS1_17ShutdownSocketSetENS1_12_GLOBAL__N_110PrivateTagENS1_6detail10DefaultTagEEC1EDnSt8functionIFvPS3_EEEUlvE_E14_M_get_pointerERKSt9_Any_data(ptr noundef nonnull align 8 dereferenceable(16) %0) #1 align 2 {
  %2 = alloca ptr, align 8
  %3 = alloca ptr, align 8
  store ptr %0, ptr %2, align 8, !tbaa !31
  call void @llvm.lifetime.start.p0(i64 8, ptr %3) #25
  %4 = load ptr, ptr %2, align 8, !tbaa !31
  %5 = call noundef nonnull align 1 dereferenceable(1) ptr @_ZNKSt9_Any_data9_M_accessIZN5folly9SingletonINS1_17ShutdownSocketSetENS1_12_GLOBAL__N_110PrivateTagENS1_6detail10DefaultTagEEC1EDnSt8functionIFvPS3_EEEUlvE_EERKT_v(ptr noundef nonnull align 8 dereferenceable(16) %4) #25
  store ptr %5, ptr %3, align 8, !tbaa !25
  %6 = load ptr, ptr %3, align 8, !tbaa !25
  call void @llvm.lifetime.end.p0(i64 8, ptr %3) #25
  ret ptr %6
}

; Function Attrs: mustprogress uwtable
define internal noundef ptr @_ZNSt17_Function_handlerIFPN5folly17ShutdownSocketSetEvEZNS0_9SingletonIS1_NS0_12_GLOBAL__N_110PrivateTagENS0_6detail10DefaultTagEEC1EDnSt8functionIFvS2_EEEUlvE_E9_M_invokeERKSt9_Any_data(ptr noundef nonnull align 8 dereferenceable(16) %0) #2 align 2 {
  %2 = alloca ptr, align 8
  store ptr %0, ptr %2, align 8, !tbaa !31
  %3 = load ptr, ptr %2, align 8, !tbaa !31
  %4 = call noundef ptr @_ZNSt14_Function_base13_Base_managerIZN5folly9SingletonINS1_17ShutdownSocketSetENS1_12_GLOBAL__N_110PrivateTagENS1_6detail10DefaultTagEEC1EDnSt8functionIFvPS3_EEEUlvE_E14_M_get_pointerERKSt9_Any_data(ptr noundef nonnull align 8 dereferenceable(16) %3) #25
  %5 = call noundef ptr @_ZSt10__invoke_rIPN5folly17ShutdownSocketSetERZNS0_9SingletonIS1_NS0_12_GLOBAL__N_110PrivateTagENS0_6detail10DefaultTagEEC1EDnSt8functionIFvS2_EEEUlvE_JEENSt9enable_ifIX16is_invocable_r_vIT_T0_DpT1_EESF_E4typeEOSG_DpOSH_(ptr noundef nonnull align 1 dereferenceable(1) %4)
  ret ptr %5
}