; Function Attrs: mustprogress uwtable
define internal noundef nonnull ptr @_ZNSt17_Function_handlerIFPN5folly17ShutdownSocketSetEvEZNS0_9SingletonIS1_NS0_12_GLOBAL__N_110PrivateTagENS0_6detail10DefaultTagEEC1EDnSt8functionIFvS2_EEEUlvE_E9_M_invokeERKSt9_Any_data(ptr nonnull readnone align 8 captures(none) %0) #2 align 2 personality ptr @__gxx_personality_v0 {
  %2 = tail call noalias noundef nonnull dereferenceable(24) ptr @_Znwm(i64 noundef 24) #33
  invoke void @_ZN5folly17ShutdownSocketSetC1Em(ptr noundef nonnull align 8 dereferenceable(24) %2, i64 noundef 262144)
          to label %_ZSt10__invoke_rIPN5folly17ShutdownSocketSetERZNS0_9SingletonIS1_NS0_12_GLOBAL__N_110PrivateTagENS0_6detail10DefaultTagEEC1EDnSt8functionIFvS2_EEEUlvE_JEENSt9enable_ifIX16is_invocable_r_vIT_T0_DpT1_EESF_E4typeEOSG_DpOSH_.exit unwind label %3

3:                                                ; preds = %1
  %4 = landingpad { ptr, i32 }
          cleanup
  tail call void @_ZdlPvm(ptr noundef nonnull %2, i64 noundef 24) #34
  resume { ptr, i32 } %4

_ZSt10__invoke_rIPN5folly17ShutdownSocketSetERZNS0_9SingletonIS1_NS0_12_GLOBAL__N_110PrivateTagENS0_6detail10DefaultTagEEC1EDnSt8functionIFvS2_EEEUlvE_JEENSt9enable_ifIX16is_invocable_r_vIT_T0_DpT1_EESF_E4typeEOSG_DpOSH_.exit: ; preds = %1
  ret ptr %2
}